target datalayout = "e-m:e-p270:32:32-p271:32:32-p272:64:64-i64:64-i128:128-f80:128-n8:16:32:64-S128"
target triple = "x86_64-unknown-linux-gnu"

; Function Attrs: mustprogress nounwind uwtable
define noundef zeroext i1 @_ZN8proxygen5http216isValidFrameTypeENS0_9FrameTypeE(i8 noundef zeroext %type) #4 {
entry:
  %retval = alloca i1, align 1
  %type.addr = alloca i8, align 1
  %val = alloca i8, align 1
  store i8 %type, ptr %type.addr, align 1
  %0 = load i8, ptr %type.addr, align 1
  store i8 %0, ptr %val, align 1
  %1 = load i8, ptr %val, align 1
  %conv = zext i8 %1 to i32
  %cmp = icmp slt i32 %conv, 240
  br i1 %cmp, label %if.then, label %if.else

if.then:                                          ; preds = %entry
  %2 = load i8, ptr %val, align 1
  %conv1 = zext i8 %2 to i32
  %cmp2 = icmp sle i32 %conv1, 10
  store i1 %cmp2, ptr %retval, align 1
  br label %return

if.else:                                          ; preds = %entry
  %3 = load i8, ptr %type.addr, align 1
  switch i8 %3, label %sw.default [
    i8 -5, label %sw.bb
    i8 -16, label %sw.bb
    i8 -15, label %sw.bb
  ]

sw.bb:                                            ; preds = %if.else, %if.else, %if.else
  store i1 true, ptr %retval, align 1
  br label %return

sw.default:                                       ; preds = %if.else
  store i1 false, ptr %retval, align 1
  br label %return

return:                                           ; preds = %sw.default, %sw.bb, %if.then
  %4 = load i1, ptr %retval, align 1
  ret i1 %4
}