; Function Attrs: mustprogress nofree norecurse nosync nounwind willreturn memory(none) uwtable
define noundef zeroext i1 @_ZN8proxygen5http216isValidFrameTypeENS0_9FrameTypeE(i8 noundef zeroext %type) local_unnamed_addr #3 {
entry:
  %cmp = icmp ult i8 %type, -16
  br i1 %cmp, label %if.then, label %if.else

if.then:                                          ; preds = %entry
  %cmp2 = icmp ult i8 %type, 11
  br label %return

if.else:                                          ; preds = %entry
  %switch.tableidx = add nsw i8 %type, 16
  %0 = icmp ult i8 %switch.tableidx, 12
  br i1 %0, label %switch.lookup, label %return

switch.lookup:                                    ; preds = %if.else
  %switch.cast = zext nneg i8 %switch.tableidx to i12
  %switch.downshift = lshr i12 -2045, %switch.cast
  %1 = and i12 %switch.downshift, 1
  %switch.masked = icmp ne i12 %1, 0
  br label %return

return:                                           ; preds = %if.else, %switch.lookup, %if.then
  %retval.0 = phi i1 [ %cmp2, %if.then ], [ %switch.masked, %switch.lookup ], [ false, %if.else ]
  ret i1 %retval.0
}